; Function Attrs: nounwind uwtable
define internal range(i32 0, 2) i32 @ec_to_X9_62_der_encode(ptr noundef %0, ptr noundef %1, ptr noundef %2, ptr noundef readnone captures(address_is_null) %3, i32 noundef %4, ptr noundef %5, ptr noundef %6) #0 {
  %8 = alloca ptr, align 8
  %9 = alloca ptr, align 8
  %.not = icmp eq ptr %3, null
  br i1 %.not, label %11, label %10

10:                                               ; preds = %7
  tail call void @ERR_new() #5
  tail call void @ERR_set_debug(ptr noundef nonnull @.str, i32 noundef 1578, ptr noundef nonnull @__func__.ec_to_X9_62_der_encode) #5
  tail call void (i32, i32, ptr, ...) @ERR_set_error(i32 noundef 57, i32 noundef 524550, ptr noundef null) #5
  br label %key2any_encode.exit

11:                                               ; preds = %7
  %12 = and i32 %4, 1
  %.not11 = icmp eq i32 %12, 0
  br i1 %.not11, label %36, label %13

13:                                               ; preds = %11
  %14 = icmp eq ptr %2, null
  br i1 %14, label %15, label %16

15:                                               ; preds = %13
  tail call void @ERR_new() #5
  tail call void @ERR_set_debug(ptr noundef nonnull @.str, i32 noundef 1140, ptr noundef nonnull @__func__.key2any_encode) #5
  tail call void (i32, i32, ptr, ...) @ERR_set_error(i32 noundef 57, i32 noundef 786690, ptr noundef null) #5
  br label %key2any_encode.exit

16:                                               ; preds = %13
  %17 = load ptr, ptr %0, align 8, !tbaa !3
  %18 = tail call ptr @ossl_bio_new_from_core_bio(ptr noundef %17, ptr noundef %1) #5
  %.not28.i = icmp eq ptr %18, null
  br i1 %.not28.i, label %34, label %19

19:                                               ; preds = %16
  %20 = icmp eq ptr %5, null
  br i1 %20, label %24, label %21

21:                                               ; preds = %19
  %22 = getelementptr inbounds nuw i8, ptr %0, i64 24
  %23 = tail call i32 @ossl_pw_set_ossl_passphrase_cb(ptr noundef nonnull %22, ptr noundef nonnull %5, ptr noundef %6) #5
  %.not29.i = icmp eq i32 %23, 0
  br i1 %.not29.i, label %34, label %24

24:                                               ; preds = %21, %19
  call void @llvm.lifetime.start.p0(i64 8, ptr nonnull %9) #5
  store ptr null, ptr %9, align 8, !tbaa !16
  %25 = call i32 @i2d_ECPrivateKey(ptr noundef nonnull %2, ptr noundef nonnull %9) #5
  %26 = icmp slt i32 %25, 1
  br i1 %26, label %27, label %28

27:                                               ; preds = %24
  call void @ERR_new() #5
  call void @ERR_set_debug(ptr noundef nonnull @.str, i32 noundef 391, ptr noundef nonnull @__func__.key_to_type_specific_der_bio) #5
  call void (i32, i32, ptr, ...) @ERR_set_error(i32 noundef 57, i32 noundef 524345, ptr noundef null) #5
  br label %key_to_type_specific_der_bio.exit

28:                                               ; preds = %24
  %29 = load ptr, ptr %9, align 8, !tbaa !16
  %30 = call i32 @BIO_write(ptr noundef nonnull %18, ptr noundef %29, i32 noundef %25) #5
  %31 = load ptr, ptr %9, align 8, !tbaa !16
  call void @CRYPTO_free(ptr noundef %31, ptr noundef nonnull @.str, i32 noundef 396) #5
  %32 = icmp sgt i32 %30, 0
  %33 = zext i1 %32 to i32
  br label %key_to_type_specific_der_bio.exit

key_to_type_specific_der_bio.exit:                ; preds = %27, %28
  %.0.i17 = phi i32 [ 0, %27 ], [ %33, %28 ]
  call void @llvm.lifetime.end.p0(i64 8, ptr nonnull %9) #5
  br label %34

34:                                               ; preds = %key_to_type_specific_der_bio.exit, %21, %16
  %.1.i = phi i32 [ %.0.i17, %key_to_type_specific_der_bio.exit ], [ 0, %21 ], [ 0, %16 ]
  %35 = call i32 @BIO_free(ptr noundef %18) #5
  br label %key2any_encode.exit

36:                                               ; preds = %11
  %37 = and i32 %4, 132
  %.not12 = icmp eq i32 %37, 0
  br i1 %.not12, label %56, label %38

38:                                               ; preds = %36
  %39 = icmp eq ptr %2, null
  br i1 %39, label %40, label %41

40:                                               ; preds = %38
  tail call void @ERR_new() #5
  tail call void @ERR_set_debug(ptr noundef nonnull @.str, i32 noundef 1140, ptr noundef nonnull @__func__.key2any_encode) #5
  tail call void (i32, i32, ptr, ...) @ERR_set_error(i32 noundef 57, i32 noundef 786690, ptr noundef null) #5
  br label %key2any_encode.exit

41:                                               ; preds = %38
  %42 = load ptr, ptr %0, align 8, !tbaa !3
  %43 = tail call ptr @ossl_bio_new_from_core_bio(ptr noundef %42, ptr noundef %1) #5
  %.not28.i13 = icmp eq ptr %43, null
  br i1 %.not28.i13, label %54, label %44

44:                                               ; preds = %41
  call void @llvm.lifetime.start.p0(i64 8, ptr nonnull %8) #5
  store ptr null, ptr %8, align 8, !tbaa !16
  %45 = call i32 @i2d_ECParameters(ptr noundef nonnull %2, ptr noundef nonnull %8) #5
  %46 = icmp slt i32 %45, 1
  br i1 %46, label %47, label %48

47:                                               ; preds = %44
  call void @ERR_new() #5
  call void @ERR_set_debug(ptr noundef nonnull @.str, i32 noundef 391, ptr noundef nonnull @__func__.key_to_type_specific_der_bio) #5
  call void (i32, i32, ptr, ...) @ERR_set_error(i32 noundef 57, i32 noundef 524345, ptr noundef null) #5
  br label %key_to_type_specific_der_bio.exit19

48:                                               ; preds = %44
  %49 = load ptr, ptr %8, align 8, !tbaa !16
  %50 = call i32 @BIO_write(ptr noundef nonnull %43, ptr noundef %49, i32 noundef %45) #5
  %51 = load ptr, ptr %8, align 8, !tbaa !16
  call void @CRYPTO_free(ptr noundef %51, ptr noundef nonnull @.str, i32 noundef 396) #5
  %52 = icmp sgt i32 %50, 0
  %53 = zext i1 %52 to i32
  br label %key_to_type_specific_der_bio.exit19

key_to_type_specific_der_bio.exit19:              ; preds = %47, %48
  %.0.i18 = phi i32 [ 0, %47 ], [ %53, %48 ]
  call void @llvm.lifetime.end.p0(i64 8, ptr nonnull %8) #5
  br label %54

54:                                               ; preds = %key_to_type_specific_der_bio.exit19, %41
  %.1.i14 = phi i32 [ %.0.i18, %key_to_type_specific_der_bio.exit19 ], [ 0, %41 ]
  %55 = call i32 @BIO_free(ptr noundef %43) #5
  br label %key2any_encode.exit

56:                                               ; preds = %36
  tail call void @ERR_new() #5
  tail call void @ERR_set_debug(ptr noundef nonnull @.str, i32 noundef 1578, ptr noundef nonnull @__func__.ec_to_X9_62_der_encode) #5
  tail call void (i32, i32, ptr, ...) @ERR_set_error(i32 noundef 57, i32 noundef 524550, ptr noundef null) #5
  br label %key2any_encode.exit

key2any_encode.exit:                              ; preds = %54, %40, %34, %15, %56, %10
  %.0 = phi i32 [ 0, %10 ], [ 0, %56 ], [ 0, %15 ], [ %.1.i, %34 ], [ 0, %40 ], [ %.1.i14, %54 ]
  ret i32 %.0
}